target datalayout = "e-m:e-p270:32:32-p271:32:32-p272:64:64-i64:64-i128:128-f80:128-n8:16:32:64-S128"
target triple = "x86_64-pc-linux-gnu"

%struct.AVFilterContext = type { ptr, ptr, ptr, ptr, ptr, i32, ptr, ptr, i32, ptr, ptr, i32, i32, ptr, ptr, ptr, ptr, i32, ptr, i32, i32 }
%struct.NegateContext = type { ptr, i32, i32, i32, i32, i32, i32, i32, [4 x i32], [4 x i32], [4 x i32], [4 x i8], ptr }
%struct.ThreadData = type { ptr, ptr }
%struct.AVChannelLayout = type { i32, i32, %union.anon.1, ptr }
%union.anon.1 = type { i64 }
%struct.AVRational = type { i32, i32 }
%struct.AVFrame = type { [8 x ptr], [8 x i32], ptr, i32, i32, i32, i32, i32, %struct.AVRational, i64, i64, %struct.AVRational, i32, ptr, i32, i32, [8 x ptr], ptr, i32, ptr, i32, i32, i32, i32, i32, i32, i32, i64, ptr, i32, ptr, ptr, i64, i64, i64, i64, ptr, %struct.AVChannelLayout, i64 }

; Function Attrs: nounwind uwtable
define internal i32 @filter_slice(ptr noundef %0, ptr noundef %1, i32 noundef %2, i32 noundef %3) #0 {
  %5 = alloca ptr, align 8
  %6 = alloca ptr, align 8
  %7 = alloca i32, align 4
  %8 = alloca i32, align 4
  %9 = alloca ptr, align 8
  %10 = alloca ptr, align 8
  %11 = alloca ptr, align 8
  %12 = alloca ptr, align 8
  %13 = alloca i32, align 4
  %14 = alloca i32, align 4
  %15 = alloca i32, align 4
  %16 = alloca i32, align 4
  %17 = alloca i32, align 4
  store ptr %0, ptr %5, align 8, !tbaa !4
  store ptr %1, ptr %6, align 8, !tbaa !66
  store i32 %2, ptr %7, align 4, !tbaa !11
  store i32 %3, ptr %8, align 4, !tbaa !11
  call void @llvm.lifetime.start.p0(i64 8, ptr %9) #5
  %18 = load ptr, ptr %5, align 8, !tbaa !4
  %19 = getelementptr inbounds nuw %struct.AVFilterContext, ptr %18, i32 0, i32 9
  %20 = load ptr, ptr %19, align 8, !tbaa !13
  store ptr %20, ptr %9, align 8, !tbaa !24
  call void @llvm.lifetime.start.p0(i64 8, ptr %10) #5
  %21 = load ptr, ptr %6, align 8, !tbaa !66
  store ptr %21, ptr %10, align 8, !tbaa !67
  call void @llvm.lifetime.start.p0(i64 8, ptr %11) #5
  %22 = load ptr, ptr %10, align 8, !tbaa !67
  %23 = getelementptr inbounds nuw %struct.ThreadData, ptr %22, i32 0, i32 0
  %24 = load ptr, ptr %23, align 8, !tbaa !46
  store ptr %24, ptr %11, align 8, !tbaa !31
  call void @llvm.lifetime.start.p0(i64 8, ptr %12) #5
  %25 = load ptr, ptr %10, align 8, !tbaa !67
  %26 = getelementptr inbounds nuw %struct.ThreadData, ptr %25, i32 0, i32 1
  %27 = load ptr, ptr %26, align 8, !tbaa !44
  store ptr %27, ptr %12, align 8, !tbaa !31
  call void @llvm.lifetime.start.p0(i64 4, ptr %13) #5
  store i32 0, ptr %13, align 4, !tbaa !11
  br label %28

28:                                               ; preds = %190, %4
  %29 = load i32, ptr %13, align 4, !tbaa !11
  %30 = load ptr, ptr %9, align 8, !tbaa !24
  %31 = getelementptr inbounds nuw %struct.NegateContext, ptr %30, i32 0, i32 7
  %32 = load i32, ptr %31, align 8, !tbaa !56
  %33 = icmp slt i32 %29, %32
  br i1 %33, label %35, label %34

34:                                               ; preds = %28
  store i32 2, ptr %14, align 4
  call void @llvm.lifetime.end.p0(i64 4, ptr %13) #5
  br label %193

35:                                               ; preds = %28
  call void @llvm.lifetime.start.p0(i64 4, ptr %15) #5
  %36 = load ptr, ptr %9, align 8, !tbaa !24
  %37 = getelementptr inbounds nuw %struct.NegateContext, ptr %36, i32 0, i32 10
  %38 = load i32, ptr %13, align 4, !tbaa !11
  %39 = sext i32 %38 to i64
  %40 = getelementptr inbounds [4 x i32], ptr %37, i64 0, i64 %39
  %41 = load i32, ptr %40, align 4, !tbaa !11
  store i32 %41, ptr %15, align 4, !tbaa !11
  call void @llvm.lifetime.start.p0(i64 4, ptr %16) #5
  %42 = load i32, ptr %15, align 4, !tbaa !11
  %43 = load i32, ptr %7, align 4, !tbaa !11
  %44 = mul nsw i32 %42, %43
  %45 = load i32, ptr %8, align 4, !tbaa !11
  %46 = sdiv i32 %44, %45
  store i32 %46, ptr %16, align 4, !tbaa !11
  call void @llvm.lifetime.start.p0(i64 4, ptr %17) #5
  %47 = load i32, ptr %15, align 4, !tbaa !11
  %48 = load i32, ptr %7, align 4, !tbaa !11
  %49 = add nsw i32 %48, 1
  %50 = mul nsw i32 %47, %49
  %51 = load i32, ptr %8, align 4, !tbaa !11
  %52 = sdiv i32 %50, %51
  store i32 %52, ptr %17, align 4, !tbaa !11
  %53 = load i32, ptr %13, align 4, !tbaa !11
  %54 = shl i32 1, %53
  %55 = load ptr, ptr %9, align 8, !tbaa !24
  %56 = getelementptr inbounds nuw %struct.NegateContext, ptr %55, i32 0, i32 5
  %57 = load i32, ptr %56, align 8, !tbaa !26
  %58 = and i32 %54, %57
  %59 = icmp ne i32 %58, 0
  br i1 %59, label %119, label %60

60:                                               ; preds = %35
  %61 = load ptr, ptr %12, align 8, !tbaa !31
  %62 = load ptr, ptr %11, align 8, !tbaa !31
  %63 = icmp ne ptr %61, %62
  br i1 %63, label %64, label %118

64:                                               ; preds = %60
  %65 = load ptr, ptr %12, align 8, !tbaa !31
  %66 = getelementptr inbounds nuw %struct.AVFrame, ptr %65, i32 0, i32 0
  %67 = load i32, ptr %13, align 4, !tbaa !11
  %68 = sext i32 %67 to i64
  %69 = getelementptr inbounds [8 x ptr], ptr %66, i64 0, i64 %68
  %70 = load ptr, ptr %69, align 8, !tbaa !9
  %71 = load i32, ptr %16, align 4, !tbaa !11
  %72 = load ptr, ptr %12, align 8, !tbaa !31
  %73 = getelementptr inbounds nuw %struct.AVFrame, ptr %72, i32 0, i32 1
  %74 = load i32, ptr %13, align 4, !tbaa !11
  %75 = sext i32 %74 to i64
  %76 = getelementptr inbounds [8 x i32], ptr %73, i64 0, i64 %75
  %77 = load i32, ptr %76, align 4, !tbaa !11
  %78 = mul nsw i32 %71, %77
  %79 = sext i32 %78 to i64
  %80 = getelementptr inbounds i8, ptr %70, i64 %79
  %81 = load ptr, ptr %12, align 8, !tbaa !31
  %82 = getelementptr inbounds nuw %struct.AVFrame, ptr %81, i32 0, i32 1
  %83 = load i32, ptr %13, align 4, !tbaa !11
  %84 = sext i32 %83 to i64
  %85 = getelementptr inbounds [8 x i32], ptr %82, i64 0, i64 %84
  %86 = load i32, ptr %85, align 4, !tbaa !11
  %87 = load ptr, ptr %11, align 8, !tbaa !31
  %88 = getelementptr inbounds nuw %struct.AVFrame, ptr %87, i32 0, i32 0
  %89 = load i32, ptr %13, align 4, !tbaa !11
  %90 = sext i32 %89 to i64
  %91 = getelementptr inbounds [8 x ptr], ptr %88, i64 0, i64 %90
  %92 = load ptr, ptr %91, align 8, !tbaa !9
  %93 = load i32, ptr %16, align 4, !tbaa !11
  %94 = load ptr, ptr %11, align 8, !tbaa !31
  %95 = getelementptr inbounds nuw %struct.AVFrame, ptr %94, i32 0, i32 1
  %96 = load i32, ptr %13, align 4, !tbaa !11
  %97 = sext i32 %96 to i64
  %98 = getelementptr inbounds [8 x i32], ptr %95, i64 0, i64 %97
  %99 = load i32, ptr %98, align 4, !tbaa !11
  %100 = mul nsw i32 %93, %99
  %101 = sext i32 %100 to i64
  %102 = getelementptr inbounds i8, ptr %92, i64 %101
  %103 = load ptr, ptr %11, align 8, !tbaa !31
  %104 = getelementptr inbounds nuw %struct.AVFrame, ptr %103, i32 0, i32 1
  %105 = load i32, ptr %13, align 4, !tbaa !11
  %106 = sext i32 %105 to i64
  %107 = getelementptr inbounds [8 x i32], ptr %104, i64 0, i64 %106
  %108 = load i32, ptr %107, align 4, !tbaa !11
  %109 = load ptr, ptr %9, align 8, !tbaa !24
  %110 = getelementptr inbounds nuw %struct.NegateContext, ptr %109, i32 0, i32 8
  %111 = load i32, ptr %13, align 4, !tbaa !11
  %112 = sext i32 %111 to i64
  %113 = getelementptr inbounds [4 x i32], ptr %110, i64 0, i64 %112
  %114 = load i32, ptr %113, align 4, !tbaa !11
  %115 = load i32, ptr %17, align 4, !tbaa !11
  %116 = load i32, ptr %16, align 4, !tbaa !11
  %117 = sub nsw i32 %115, %116
  call void @av_image_copy_plane(ptr noundef %80, i32 noundef %86, ptr noundef %102, i32 noundef %108, i32 noundef %114, i32 noundef %117)
  br label %118

118:                                              ; preds = %64, %60
  store i32 4, ptr %14, align 4
  br label %187

119:                                              ; preds = %35
  %120 = load ptr, ptr %9, align 8, !tbaa !24
  %121 = getelementptr inbounds nuw %struct.NegateContext, ptr %120, i32 0, i32 12
  %122 = load ptr, ptr %121, align 8, !tbaa !63
  %123 = load ptr, ptr %11, align 8, !tbaa !31
  %124 = getelementptr inbounds nuw %struct.AVFrame, ptr %123, i32 0, i32 0
  %125 = load i32, ptr %13, align 4, !tbaa !11
  %126 = sext i32 %125 to i64
  %127 = getelementptr inbounds [8 x ptr], ptr %124, i64 0, i64 %126
  %128 = load ptr, ptr %127, align 8, !tbaa !9
  %129 = load i32, ptr %16, align 4, !tbaa !11
  %130 = load ptr, ptr %11, align 8, !tbaa !31
  %131 = getelementptr inbounds nuw %struct.AVFrame, ptr %130, i32 0, i32 1
  %132 = load i32, ptr %13, align 4, !tbaa !11
  %133 = sext i32 %132 to i64
  %134 = getelementptr inbounds [8 x i32], ptr %131, i64 0, i64 %133
  %135 = load i32, ptr %134, align 4, !tbaa !11
  %136 = mul nsw i32 %129, %135
  %137 = sext i32 %136 to i64
  %138 = getelementptr inbounds i8, ptr %128, i64 %137
  %139 = load ptr, ptr %12, align 8, !tbaa !31
  %140 = getelementptr inbounds nuw %struct.AVFrame, ptr %139, i32 0, i32 0
  %141 = load i32, ptr %13, align 4, !tbaa !11
  %142 = sext i32 %141 to i64
  %143 = getelementptr inbounds [8 x ptr], ptr %140, i64 0, i64 %142
  %144 = load ptr, ptr %143, align 8, !tbaa !9
  %145 = load i32, ptr %16, align 4, !tbaa !11
  %146 = load ptr, ptr %12, align 8, !tbaa !31
  %147 = getelementptr inbounds nuw %struct.AVFrame, ptr %146, i32 0, i32 1
  %148 = load i32, ptr %13, align 4, !tbaa !11
  %149 = sext i32 %148 to i64
  %150 = getelementptr inbounds [8 x i32], ptr %147, i64 0, i64 %149
  %151 = load i32, ptr %150, align 4, !tbaa !11
  %152 = mul nsw i32 %145, %151
  %153 = sext i32 %152 to i64
  %154 = getelementptr inbounds i8, ptr %144, i64 %153
  %155 = load ptr, ptr %11, align 8, !tbaa !31
  %156 = getelementptr inbounds nuw %struct.AVFrame, ptr %155, i32 0, i32 1
  %157 = load i32, ptr %13, align 4, !tbaa !11
  %158 = sext i32 %157 to i64
  %159 = getelementptr inbounds [8 x i32], ptr %156, i64 0, i64 %158
  %160 = load i32, ptr %159, align 4, !tbaa !11
  %161 = sext i32 %160 to i64
  %162 = load ptr, ptr %12, align 8, !tbaa !31
  %163 = getelementptr inbounds nuw %struct.AVFrame, ptr %162, i32 0, i32 1
  %164 = load i32, ptr %13, align 4, !tbaa !11
  %165 = sext i32 %164 to i64
  %166 = getelementptr inbounds [8 x i32], ptr %163, i64 0, i64 %165
  %167 = load i32, ptr %166, align 4, !tbaa !11
  %168 = sext i32 %167 to i64
  %169 = load ptr, ptr %9, align 8, !tbaa !24
  %170 = getelementptr inbounds nuw %struct.NegateContext, ptr %169, i32 0, i32 9
  %171 = load i32, ptr %13, align 4, !tbaa !11
  %172 = sext i32 %171 to i64
  %173 = getelementptr inbounds [4 x i32], ptr %170, i64 0, i64 %172
  %174 = load i32, ptr %173, align 4, !tbaa !11
  %175 = load i32, ptr %17, align 4, !tbaa !11
  %176 = load i32, ptr %16, align 4, !tbaa !11
  %177 = sub nsw i32 %175, %176
  %178 = load ptr, ptr %9, align 8, !tbaa !24
  %179 = getelementptr inbounds nuw %struct.NegateContext, ptr %178, i32 0, i32 2
  %180 = load i32, ptr %179, align 4, !tbaa !64
  %181 = load ptr, ptr %9, align 8, !tbaa !24
  %182 = getelementptr inbounds nuw %struct.NegateContext, ptr %181, i32 0, i32 6
  %183 = load i32, ptr %182, align 4, !tbaa !65
  %184 = load ptr, ptr %9, align 8, !tbaa !24
  %185 = getelementptr inbounds nuw %struct.NegateContext, ptr %184, i32 0, i32 4
  %186 = load i32, ptr %185, align 4, !tbaa !57
  call void %122(ptr noundef %138, ptr noundef %154, i64 noundef %161, i64 noundef %168, i32 noundef %174, i32 noundef %177, i32 noundef %180, i32 noundef %183, i32 noundef %186)
  store i32 0, ptr %14, align 4
  br label %187

187:                                              ; preds = %119, %118
  call void @llvm.lifetime.end.p0(i64 4, ptr %17) #5
  call void @llvm.lifetime.end.p0(i64 4, ptr %16) #5
  call void @llvm.lifetime.end.p0(i64 4, ptr %15) #5
  %188 = load i32, ptr %14, align 4
  switch i32 %188, label %194 [
    i32 0, label %189
    i32 4, label %190
  ]

189:                                              ; preds = %187
  br label %190

190:                                              ; preds = %189, %187
  %191 = load i32, ptr %13, align 4, !tbaa !11
  %192 = add nsw i32 %191, 1
  store i32 %192, ptr %13, align 4, !tbaa !11
  br label %28, !llvm.loop !69

193:                                              ; preds = %34
  store i32 1, ptr %14, align 4
  call void @llvm.lifetime.end.p0(i64 8, ptr %12) #5
  call void @llvm.lifetime.end.p0(i64 8, ptr %11) #5
  call void @llvm.lifetime.end.p0(i64 8, ptr %10) #5
  call void @llvm.lifetime.end.p0(i64 8, ptr %9) #5
  ret i32 0

194:                                              ; preds = %187
  unreachable
}