; Function Attrs: nounwind uwtable
define internal noundef i32 @filter_slice(ptr noundef readonly captures(none) %0, ptr noundef readonly captures(none) %1, i32 noundef %2, i32 noundef %3) #0 {
  %5 = getelementptr inbounds nuw i8, ptr %0, i64 72
  %6 = load ptr, ptr %5, align 8, !tbaa !4
  %7 = load ptr, ptr %1, align 8, !tbaa !41
  %8 = getelementptr inbounds nuw i8, ptr %1, i64 8
  %9 = load ptr, ptr %8, align 8, !tbaa !39
  %10 = getelementptr inbounds nuw i8, ptr %6, i64 32
  %11 = load i32, ptr %10, align 8, !tbaa !50
  %12 = icmp sgt i32 %11, 0
  br i1 %12, label %.lr.ph, label %._crit_edge

.lr.ph:                                           ; preds = %4
  %13 = getelementptr inbounds nuw i8, ptr %6, i64 68
  %14 = add nsw i32 %2, 1
  %15 = getelementptr inbounds nuw i8, ptr %6, i64 24
  %16 = getelementptr inbounds nuw i8, ptr %6, i64 88
  %17 = getelementptr inbounds nuw i8, ptr %7, i64 64
  %18 = getelementptr inbounds nuw i8, ptr %9, i64 64
  %19 = getelementptr inbounds nuw i8, ptr %6, i64 52
  %20 = getelementptr inbounds nuw i8, ptr %6, i64 12
  %21 = getelementptr inbounds nuw i8, ptr %6, i64 28
  %22 = getelementptr inbounds nuw i8, ptr %6, i64 20
  %.not60 = icmp eq ptr %9, %7
  %23 = getelementptr inbounds nuw i8, ptr %6, i64 36
  %.not60.fr = freeze i1 %.not60
  br i1 %.not60.fr, label %.lr.ph.split.us, label %.lr.ph.split

.lr.ph.split.us:                                  ; preds = %.lr.ph, %59
  %24 = phi i32 [ %60, %59 ], [ %11, %.lr.ph ]
  %indvars.iv64 = phi i64 [ %indvars.iv.next65, %59 ], [ 0, %.lr.ph ]
  %25 = trunc nuw nsw i64 %indvars.iv64 to i32
  %26 = shl nuw i32 1, %25
  %27 = load i32, ptr %15, align 8, !tbaa !20
  %28 = and i32 %27, %26
  %.not.us = icmp eq i32 %28, 0
  br i1 %.not.us, label %59, label %29

29:                                               ; preds = %.lr.ph.split.us
  %30 = getelementptr inbounds nuw [4 x i32], ptr %13, i64 0, i64 %indvars.iv64
  %31 = load i32, ptr %30, align 4, !tbaa !42
  %32 = mul nsw i32 %31, %14
  %33 = sdiv i32 %32, %3
  %34 = mul nsw i32 %31, %2
  %35 = sdiv i32 %34, %3
  %36 = load ptr, ptr %16, align 8, !tbaa !57
  %37 = getelementptr inbounds nuw [8 x ptr], ptr %7, i64 0, i64 %indvars.iv64
  %38 = load ptr, ptr %37, align 8, !tbaa !60
  %39 = getelementptr inbounds nuw [8 x i32], ptr %17, i64 0, i64 %indvars.iv64
  %40 = load i32, ptr %39, align 4, !tbaa !42
  %41 = mul nsw i32 %40, %35
  %42 = sext i32 %41 to i64
  %43 = getelementptr inbounds i8, ptr %38, i64 %42
  %44 = getelementptr inbounds nuw [8 x ptr], ptr %9, i64 0, i64 %indvars.iv64
  %45 = load ptr, ptr %44, align 8, !tbaa !60
  %46 = getelementptr inbounds nuw [8 x i32], ptr %18, i64 0, i64 %indvars.iv64
  %47 = load i32, ptr %46, align 4, !tbaa !42
  %48 = mul nsw i32 %47, %35
  %49 = sext i32 %48 to i64
  %50 = getelementptr inbounds i8, ptr %45, i64 %49
  %51 = sext i32 %40 to i64
  %52 = sext i32 %47 to i64
  %53 = getelementptr inbounds nuw [4 x i32], ptr %19, i64 0, i64 %indvars.iv64
  %54 = load i32, ptr %53, align 4, !tbaa !42
  %55 = sub nsw i32 %33, %35
  %56 = load i32, ptr %20, align 4, !tbaa !58
  %57 = load i32, ptr %21, align 4, !tbaa !59
  %58 = load i32, ptr %22, align 4, !tbaa !51
  tail call void %36(ptr noundef %43, ptr noundef %50, i64 noundef %51, i64 noundef %52, i32 noundef %54, i32 noundef %55, i32 noundef %56, i32 noundef %57, i32 noundef %58) #6
  %.pre = load i32, ptr %10, align 8, !tbaa !50
  br label %59

59:                                               ; preds = %.lr.ph.split.us, %29
  %60 = phi i32 [ %24, %.lr.ph.split.us ], [ %.pre, %29 ]
  %indvars.iv.next65 = add nuw nsw i64 %indvars.iv64, 1
  %61 = sext i32 %60 to i64
  %62 = icmp slt i64 %indvars.iv.next65, %61
  br i1 %62, label %.lr.ph.split.us, label %._crit_edge, !llvm.loop !61

._crit_edge:                                      ; preds = %115, %59, %4
  ret i32 0

.lr.ph.split:                                     ; preds = %.lr.ph, %115
  %indvars.iv = phi i64 [ %indvars.iv.next, %115 ], [ 0, %.lr.ph ]
  %63 = getelementptr inbounds nuw [4 x i32], ptr %13, i64 0, i64 %indvars.iv
  %64 = load i32, ptr %63, align 4, !tbaa !42
  %65 = mul nsw i32 %64, %2
  %66 = sdiv i32 %65, %3
  %67 = mul nsw i32 %64, %14
  %68 = sdiv i32 %67, %3
  %69 = trunc nuw nsw i64 %indvars.iv to i32
  %70 = shl nuw i32 1, %69
  %71 = load i32, ptr %15, align 8, !tbaa !20
  %72 = and i32 %71, %70
  %.not = icmp eq i32 %72, 0
  br i1 %.not, label %73, label %91

73:                                               ; preds = %.lr.ph.split
  %74 = getelementptr inbounds nuw [8 x ptr], ptr %9, i64 0, i64 %indvars.iv
  %75 = load ptr, ptr %74, align 8, !tbaa !60
  %76 = getelementptr inbounds nuw [8 x i32], ptr %18, i64 0, i64 %indvars.iv
  %77 = load i32, ptr %76, align 4, !tbaa !42
  %78 = mul nsw i32 %77, %66
  %79 = sext i32 %78 to i64
  %80 = getelementptr inbounds i8, ptr %75, i64 %79
  %81 = getelementptr inbounds nuw [8 x ptr], ptr %7, i64 0, i64 %indvars.iv
  %82 = load ptr, ptr %81, align 8, !tbaa !60
  %83 = getelementptr inbounds nuw [8 x i32], ptr %17, i64 0, i64 %indvars.iv
  %84 = load i32, ptr %83, align 4, !tbaa !42
  %85 = mul nsw i32 %84, %66
  %86 = sext i32 %85 to i64
  %87 = getelementptr inbounds i8, ptr %82, i64 %86
  %88 = getelementptr inbounds nuw [4 x i32], ptr %23, i64 0, i64 %indvars.iv
  %89 = load i32, ptr %88, align 4, !tbaa !42
  %90 = sub nsw i32 %68, %66
  tail call void @av_image_copy_plane(ptr noundef %80, i32 noundef %77, ptr noundef %87, i32 noundef %84, i32 noundef %89, i32 noundef %90) #6
  br label %115

91:                                               ; preds = %.lr.ph.split
  %92 = load ptr, ptr %16, align 8, !tbaa !57
  %93 = getelementptr inbounds nuw [8 x ptr], ptr %7, i64 0, i64 %indvars.iv
  %94 = load ptr, ptr %93, align 8, !tbaa !60
  %95 = getelementptr inbounds nuw [8 x i32], ptr %17, i64 0, i64 %indvars.iv
  %96 = load i32, ptr %95, align 4, !tbaa !42
  %97 = mul nsw i32 %96, %66
  %98 = sext i32 %97 to i64
  %99 = getelementptr inbounds i8, ptr %94, i64 %98
  %100 = getelementptr inbounds nuw [8 x ptr], ptr %9, i64 0, i64 %indvars.iv
  %101 = load ptr, ptr %100, align 8, !tbaa !60
  %102 = getelementptr inbounds nuw [8 x i32], ptr %18, i64 0, i64 %indvars.iv
  %103 = load i32, ptr %102, align 4, !tbaa !42
  %104 = mul nsw i32 %103, %66
  %105 = sext i32 %104 to i64
  %106 = getelementptr inbounds i8, ptr %101, i64 %105
  %107 = sext i32 %96 to i64
  %108 = sext i32 %103 to i64
  %109 = getelementptr inbounds nuw [4 x i32], ptr %19, i64 0, i64 %indvars.iv
  %110 = load i32, ptr %109, align 4, !tbaa !42
  %111 = sub nsw i32 %68, %66
  %112 = load i32, ptr %20, align 4, !tbaa !58
  %113 = load i32, ptr %21, align 4, !tbaa !59
  %114 = load i32, ptr %22, align 4, !tbaa !51
  tail call void %92(ptr noundef %99, ptr noundef %106, i64 noundef %107, i64 noundef %108, i32 noundef %110, i32 noundef %111, i32 noundef %112, i32 noundef %113, i32 noundef %114) #6
  br label %115

115:                                              ; preds = %73, %91
  %indvars.iv.next = add nuw nsw i64 %indvars.iv, 1
  %116 = load i32, ptr %10, align 8, !tbaa !50
  %117 = sext i32 %116 to i64
  %118 = icmp slt i64 %indvars.iv.next, %117
  br i1 %118, label %.lr.ph.split, label %._crit_edge, !llvm.loop !61
}